; Function Attrs: mustprogress nofree norecurse nosync nounwind willreturn memory(argmem: write) uwtable
define dso_local void @_ZN4llvm29convertExceptionBehaviorToStrENS_2fp17ExceptionBehaviorE(ptr dead_on_unwind noalias writable writeonly sret(%"class.std::optional.6") align 8 captures(none) initializes((16, 17)) %0, i8 noundef zeroext %1) local_unnamed_addr #1 {
  %3 = getelementptr inbounds nuw i8, ptr %0, i64 16
  store i8 0, ptr %3, align 8
  %4 = icmp ult i8 %1, 3
  br i1 %4, label %switch.lookup, label %8

switch.lookup:                                    ; preds = %2
  %5 = zext nneg i8 %1 to i64
  %switch.gep = getelementptr inbounds nuw [3 x ptr], ptr @switch.table._ZN4llvm29convertExceptionBehaviorToStrENS_2fp17ExceptionBehaviorE, i64 0, i64 %5
  %switch.load = load ptr, ptr %switch.gep, align 8
  %6 = zext nneg i8 %1 to i64
  %switch.gep5 = getelementptr inbounds nuw [3 x i64], ptr @switch.table._ZN4llvm29convertExceptionBehaviorToStrENS_2fp17ExceptionBehaviorE.2, i64 0, i64 %6
  %switch.load6 = load i64, ptr %switch.gep5, align 8
  store ptr %switch.load, ptr %0, align 8
  store i8 1, ptr %3, align 8
  %7 = getelementptr inbounds nuw i8, ptr %0, i64 8
  store i64 %switch.load6, ptr %7, align 8
  br label %8

8:                                                ; preds = %2, %switch.lookup
  ret void
}